; Function Attrs: mustprogress uwtable
define noundef ptr @ufmt_getUChars_75(ptr noundef %fmt, ptr noundef writeonly %len, ptr nocapture noundef %status) local_unnamed_addr #1 {
entry:
  %fType.i = getelementptr inbounds i8, ptr %fmt, i64 40
  %0 = load i32, ptr %fType.i, align 8
  %cmp.not = icmp eq i32 %0, 3
  br i1 %cmp.not, label %if.end.i, label %if.then

if.then:                                          ; preds = %entry
  %1 = load i32, ptr %status, align 4
  %cmp.i = icmp sgt i32 %1, 0
  br i1 %cmp.i, label %return, label %if.then3

if.then3:                                         ; preds = %if.then
  store i32 3, ptr %status, align 4
  br label %return

if.end.i:                                         ; preds = %entry
  %fValue.i = getelementptr inbounds i8, ptr %fmt, i64 8
  %2 = load ptr, ptr %fValue.i, align 8
  %cmp2.i = icmp eq ptr %2, null
  %.pre = load i32, ptr %status, align 4
  br i1 %cmp2.i, label %if.then3.i, label %_ZN6icu_7511Formattable9getStringER10UErrorCode.exit

if.then3.i:                                       ; preds = %if.end.i
  %cmp.i.i2.i = icmp sgt i32 %.pre, 0
  br i1 %cmp.i.i2.i, label %_ZN6icu_7511Formattable9getStringER10UErrorCode.exit.thread, label %if.then.i3.i

if.then.i3.i:                                     ; preds = %if.then3.i
  store i32 7, ptr %status, align 4
  br label %_ZN6icu_7511Formattable9getStringER10UErrorCode.exit.thread

_ZN6icu_7511Formattable9getStringER10UErrorCode.exit.thread: ; preds = %if.then3.i, %if.then.i3.i
  %fBogus.i5.i = getelementptr inbounds i8, ptr %fmt, i64 48
  br label %if.end11

_ZN6icu_7511Formattable9getStringER10UErrorCode.exit: ; preds = %if.end.i
  %cmp.i8 = icmp slt i32 %.pre, 1
  %cmp8 = icmp ne ptr %len, null
  %or.cond = and i1 %cmp8, %cmp.i8
  br i1 %or.cond, label %if.then9, label %if.end11

if.then9:                                         ; preds = %_ZN6icu_7511Formattable9getStringER10UErrorCode.exit
  %fUnion.i.i = getelementptr inbounds i8, ptr %2, i64 8
  %3 = load i16, ptr %fUnion.i.i, align 8
  %cmp.i.i = icmp slt i16 %3, 0
  %4 = ashr i16 %3, 5
  %shr.i.i = sext i16 %4 to i32
  %fLength.i = getelementptr inbounds i8, ptr %2, i64 12
  %5 = load i32, ptr %fLength.i, align 4
  %cond.i = select i1 %cmp.i.i, i32 %5, i32 %shr.i.i
  store i32 %cond.i, ptr %len, align 4
  br label %if.end11

if.end11:                                         ; preds = %_ZN6icu_7511Formattable9getStringER10UErrorCode.exit.thread, %if.then9, %_ZN6icu_7511Formattable9getStringER10UErrorCode.exit
  %retval.0.i14 = phi ptr [ %fBogus.i5.i, %_ZN6icu_7511Formattable9getStringER10UErrorCode.exit.thread ], [ %2, %if.then9 ], [ %2, %_ZN6icu_7511Formattable9getStringER10UErrorCode.exit ]
  %call12 = tail call noundef ptr @_ZN6icu_7513UnicodeString19getTerminatedBufferEv(ptr noundef nonnull align 8 dereferenceable(64) %retval.0.i14)
  br label %return

return:                                           ; preds = %if.then, %if.then3, %if.end11
  %retval.0 = phi ptr [ %call12, %if.end11 ], [ null, %if.then3 ], [ null, %if.then ]
  ret ptr %retval.0
}